target datalayout = "e-m:e-p270:32:32-p271:32:32-p272:64:64-i64:64-i128:128-f80:128-n8:16:32:64-S128"
target triple = "x86_64-pc-linux-gnu"

%class.Probabilities = type { %"class.std::map", %"class.std::map.0", %"class.std::map.8", %"class.std::map.13", %"class.std::map.18", %"class.std::map.18" }
%"class.std::map" = type { %"class.std::_Rb_tree" }
%"class.std::_Rb_tree" = type { %"struct.std::_Rb_tree<std::__cxx11::basic_string<char>, std::pair<const std::__cxx11::basic_string<char>, ProbName>, std::_Select1st<std::pair<const std::__cxx11::basic_string<char>, ProbName>>, std::less<std::__cxx11::basic_string<char>>>::_Rb_tree_impl" }
%"struct.std::_Rb_tree<std::__cxx11::basic_string<char>, std::pair<const std::__cxx11::basic_string<char>, ProbName>, std::_Select1st<std::pair<const std::__cxx11::basic_string<char>, ProbName>>, std::less<std::__cxx11::basic_string<char>>>::_Rb_tree_impl" = type { %"struct.std::_Rb_tree_key_compare", %"struct.std::_Rb_tree_header" }
%"struct.std::_Rb_tree_key_compare" = type { %"struct.std::less" }
%"struct.std::less" = type { i8 }
%"struct.std::_Rb_tree_header" = type { %"struct.std::_Rb_tree_node_base", i64 }
%"struct.std::_Rb_tree_node_base" = type { i32, ptr, ptr, ptr }
%"class.std::map.0" = type { %"class.std::_Rb_tree.1" }
%"class.std::_Rb_tree.1" = type { %"struct.std::_Rb_tree<ProbName, std::pair<const ProbName, std::__cxx11::basic_string<char>>, std::_Select1st<std::pair<const ProbName, std::__cxx11::basic_string<char>>>, std::less<ProbName>>::_Rb_tree_impl" }
%"struct.std::_Rb_tree<ProbName, std::pair<const ProbName, std::__cxx11::basic_string<char>>, std::_Select1st<std::pair<const ProbName, std::__cxx11::basic_string<char>>>, std::less<ProbName>>::_Rb_tree_impl" = type { %"struct.std::_Rb_tree_key_compare.5", %"struct.std::_Rb_tree_header" }
%"struct.std::_Rb_tree_key_compare.5" = type { %"struct.std::less.6" }
%"struct.std::less.6" = type { i8 }
%"class.std::map.8" = type { %"class.std::_Rb_tree.9" }
%"class.std::_Rb_tree.9" = type { %"struct.std::_Rb_tree<ProbName, std::pair<const ProbName, unsigned int>, std::_Select1st<std::pair<const ProbName, unsigned int>>, std::less<ProbName>>::_Rb_tree_impl" }
%"struct.std::_Rb_tree<ProbName, std::pair<const ProbName, unsigned int>, std::_Select1st<std::pair<const ProbName, unsigned int>>, std::less<ProbName>>::_Rb_tree_impl" = type { %"struct.std::_Rb_tree_key_compare.5", %"struct.std::_Rb_tree_header" }
%"class.std::map.13" = type { %"class.std::_Rb_tree.14" }
%"class.std::_Rb_tree.14" = type { %"struct.std::_Rb_tree<ProbName, std::pair<const ProbName, ProbElem *>, std::_Select1st<std::pair<const ProbName, ProbElem *>>, std::less<ProbName>>::_Rb_tree_impl" }
%"struct.std::_Rb_tree<ProbName, std::pair<const ProbName, ProbElem *>, std::_Select1st<std::pair<const ProbName, ProbElem *>>, std::less<ProbName>>::_Rb_tree_impl" = type { %"struct.std::_Rb_tree_key_compare.5", %"struct.std::_Rb_tree_header" }
%"class.std::map.18" = type { %"class.std::_Rb_tree.19" }
%"class.std::_Rb_tree.19" = type { %"struct.std::_Rb_tree<ProbName, std::pair<const ProbName, Filter *>, std::_Select1st<std::pair<const ProbName, Filter *>>, std::less<ProbName>>::_Rb_tree_impl" }
%"struct.std::_Rb_tree<ProbName, std::pair<const ProbName, Filter *>, std::_Select1st<std::pair<const ProbName, Filter *>>, std::less<ProbName>>::_Rb_tree_impl" = type { %"struct.std::_Rb_tree_key_compare.5", %"struct.std::_Rb_tree_header" }

; Function Attrs: mustprogress uwtable
define dso_local noundef i32 @_ZN13Probabilities8get_probE8ProbName(i32 noundef %0) #4 align 2 {
  %2 = alloca i32, align 4
  %3 = alloca ptr, align 8
  %4 = alloca ptr, align 8
  %5 = alloca i32, align 4
  store i32 %0, ptr %2, align 4
  %6 = call noundef ptr @_ZN13Probabilities11GetInstanceEv()
  store ptr %6, ptr %3, align 8
  %7 = load ptr, ptr %3, align 8
  %8 = getelementptr inbounds %class.Probabilities, ptr %7, i32 0, i32 3
  %9 = call noundef nonnull align 8 dereferenceable(8) ptr @_ZNSt3mapI8ProbNameP8ProbElemSt4lessIS0_ESaISt4pairIKS0_S2_EEEixERS6_(ptr noundef nonnull align 8 dereferenceable(48) %8, ptr noundef nonnull align 4 dereferenceable(4) %2)
  %10 = load ptr, ptr %9, align 8
  store ptr %10, ptr %4, align 8
  %11 = load ptr, ptr %4, align 8
  %12 = load i32, ptr %2, align 4
  %13 = load ptr, ptr %11, align 8
  %14 = getelementptr inbounds ptr, ptr %13, i64 2
  %15 = load ptr, ptr %14, align 8
  %16 = call noundef i32 %15(ptr noundef nonnull align 8 dereferenceable(8) %11, i32 noundef %12)
  store i32 %16, ptr %5, align 4
  %17 = load i32, ptr %5, align 4
  ret i32 %17
}